target datalayout = "e-m:e-p270:32:32-p271:32:32-p272:64:64-i64:64-i128:128-f80:128-n8:16:32:64-S128"
target triple = "x86_64-pc-linux-gnu"

%"class.llvm::StringSet" = type { %"class.llvm::StringMap" }
%"class.llvm::StringMap" = type { %"class.llvm::StringMapImpl" }
%"class.llvm::StringMapImpl" = type { ptr, i32, i32, i32, i32 }
%"class.llvm::symbolize::MarkupFilter" = type { ptr, ptr, i8, %"class.llvm::symbolize::MarkupParser", %"class.std::__cxx11::basic_string", %"class.std::optional.0", %"class.std::optional.13", i8, [7 x i8], %"class.llvm::DenseMap", %"class.std::map" }
%"class.llvm::symbolize::MarkupParser" = type { %"class.llvm::StringSet", %"class.std::__cxx11::basic_string", %"class.std::__cxx11::basic_string", %"class.llvm::StringRef", %"class.llvm::SmallVector", i64, %"class.llvm::Regex" }
%"class.llvm::StringRef" = type { ptr, i64 }
%"class.llvm::SmallVector" = type { %"class.llvm::SmallVectorImpl", %"struct.llvm::SmallVectorStorage" }
%"class.llvm::SmallVectorImpl" = type { %"class.llvm::SmallVectorTemplateBase" }
%"class.llvm::SmallVectorTemplateBase" = type { %"class.llvm::SmallVectorTemplateCommon" }
%"class.llvm::SmallVectorTemplateCommon" = type { %"class.llvm::SmallVectorBase" }
%"class.llvm::SmallVectorBase" = type { ptr, i32, i32 }
%"struct.llvm::SmallVectorStorage" = type { [96 x i8] }
%"class.llvm::Regex" = type <{ ptr, i32, [4 x i8] }>
%"class.std::__cxx11::basic_string" = type { %"struct.std::__cxx11::basic_string<char>::_Alloc_hider", i64, %union.anon }
%"struct.std::__cxx11::basic_string<char>::_Alloc_hider" = type { ptr }
%union.anon = type { i64, [8 x i8] }
%"class.std::optional.0" = type { %"struct.std::_Optional_base.1" }
%"struct.std::_Optional_base.1" = type { %"struct.std::_Optional_payload.3" }
%"struct.std::_Optional_payload.3" = type { %"struct.std::_Optional_payload.base", [7 x i8] }
%"struct.std::_Optional_payload.base" = type { %"struct.std::_Optional_payload_base.base" }
%"struct.std::_Optional_payload_base.base" = type <{ %"union.std::_Optional_payload_base<llvm::symbolize::MarkupFilter::ModuleInfoLine>::_Storage", i8 }>
%"union.std::_Optional_payload_base<llvm::symbolize::MarkupFilter::ModuleInfoLine>::_Storage" = type { %"struct.llvm::symbolize::MarkupFilter::ModuleInfoLine" }
%"struct.llvm::symbolize::MarkupFilter::ModuleInfoLine" = type { ptr, %"class.llvm::SmallVector.6" }
%"class.llvm::SmallVector.6" = type { %"class.llvm::SmallVectorImpl.7", %"struct.llvm::SmallVectorStorage.10" }
%"class.llvm::SmallVectorImpl.7" = type { %"class.llvm::SmallVectorTemplateBase.8" }
%"class.llvm::SmallVectorTemplateBase.8" = type { %"class.llvm::SmallVectorTemplateCommon.9" }
%"class.llvm::SmallVectorTemplateCommon.9" = type { %"class.llvm::SmallVectorBase" }
%"struct.llvm::SmallVectorStorage.10" = type { [48 x i8] }
%"class.std::optional.13" = type { %"struct.std::_Optional_base.14" }
%"struct.std::_Optional_base.14" = type { %"struct.std::_Optional_payload.16" }
%"struct.std::_Optional_payload.16" = type { %"struct.std::_Optional_payload_base.base.18", [3 x i8] }
%"struct.std::_Optional_payload_base.base.18" = type <{ %"union.std::_Optional_payload_base<llvm::raw_ostream::Colors>::_Storage", i8 }>
%"union.std::_Optional_payload_base<llvm::raw_ostream::Colors>::_Storage" = type { i32 }
%"class.llvm::DenseMap" = type <{ ptr, i32, i32, i32, [4 x i8] }>
%"class.std::map" = type { %"class.std::_Rb_tree" }
%"class.std::_Rb_tree" = type { %"struct.std::_Rb_tree<unsigned long, std::pair<const unsigned long, llvm::symbolize::MarkupFilter::MMap>, std::_Select1st<std::pair<const unsigned long, llvm::symbolize::MarkupFilter::MMap>>, std::less<unsigned long>>::_Rb_tree_impl" }
%"struct.std::_Rb_tree<unsigned long, std::pair<const unsigned long, llvm::symbolize::MarkupFilter::MMap>, std::_Select1st<std::pair<const unsigned long, llvm::symbolize::MarkupFilter::MMap>>, std::less<unsigned long>>::_Rb_tree_impl" = type { [8 x i8], %"struct.std::_Rb_tree_header" }
%"struct.std::_Rb_tree_header" = type { %"struct.std::_Rb_tree_node_base", i64 }
%"struct.std::_Rb_tree_node_base" = type { i32, ptr, ptr, ptr }
%"class.llvm::Twine" = type <{ %"union.llvm::Twine::Child", %"union.llvm::Twine::Child", i8, i8, [6 x i8] }>
%"union.llvm::Twine::Child" = type { %struct.anon }
%struct.anon = type { ptr, i64 }
%"struct.std::_Optional_payload_base.17" = type <{ %"union.std::_Optional_payload_base<llvm::raw_ostream::Colors>::_Storage", i8, [3 x i8] }>

; Function Attrs: mustprogress nounwind uwtable
define linkonce_odr hidden noundef nonnull align 4 dereferenceable(4) ptr @_ZNKSt22_Optional_payload_baseIN4llvm11raw_ostream6ColorsEE6_M_getEv(ptr noundef nonnull align 4 dereferenceable(5) %0) #0 comdat align 2 {
  %2 = alloca ptr, align 8
  store ptr %0, ptr %2, align 8
  %3 = load ptr, ptr %2, align 8
  %4 = getelementptr inbounds nuw %"struct.std::_Optional_payload_base.17", ptr %3, i32 0, i32 0
  ret ptr %4
}

; Function Attrs: mustprogress nounwind uwtable
define linkonce_odr hidden noundef nonnull align 4 dereferenceable(4) ptr @_ZNKSt19_Optional_base_implIN4llvm11raw_ostream6ColorsESt14_Optional_baseIS2_Lb1ELb1EEE6_M_getEv(ptr noundef nonnull align 1 dereferenceable(1) %0) #0 comdat align 2 {
  %2 = alloca ptr, align 8
  store ptr %0, ptr %2, align 8
  %3 = load ptr, ptr %2, align 8
  br label %4

4:                                                ; preds = %1
  br label %5

5:                                                ; preds = %4
  %6 = getelementptr inbounds nuw %"struct.std::_Optional_base.14", ptr %3, i32 0, i32 0
  %7 = call noundef nonnull align 4 dereferenceable(4) ptr @_ZNKSt22_Optional_payload_baseIN4llvm11raw_ostream6ColorsEE6_M_getEv(ptr noundef nonnull align 4 dereferenceable(5) %6) #12
  ret ptr %7
}

; Function Attrs: mustprogress nounwind uwtable
define linkonce_odr hidden noundef zeroext i1 @_ZNKSt19_Optional_base_implIN4llvm11raw_ostream6ColorsESt14_Optional_baseIS2_Lb1ELb1EEE13_M_is_engagedEv(ptr noundef nonnull align 1 dereferenceable(1) %0) #0 comdat align 2 {
  %2 = alloca ptr, align 8
  store ptr %0, ptr %2, align 8
  %3 = load ptr, ptr %2, align 8
  %4 = getelementptr inbounds nuw %"struct.std::_Optional_base.14", ptr %3, i32 0, i32 0
  %5 = getelementptr inbounds nuw %"struct.std::_Optional_payload_base.17", ptr %4, i32 0, i32 1
  %6 = load i8, ptr %5, align 4
  %7 = trunc i8 %6 to i1
  ret i1 %7
}

; Function Attrs: mustprogress nounwind uwtable
define linkonce_odr hidden noundef nonnull align 4 dereferenceable(4) ptr @_ZNKRSt8optionalIN4llvm11raw_ostream6ColorsEEdeEv(ptr noundef nonnull align 4 dereferenceable(8) %0) #0 comdat align 2 {
  %2 = alloca ptr, align 8
  store ptr %0, ptr %2, align 8
  %3 = load ptr, ptr %2, align 8
  %4 = call noundef nonnull align 4 dereferenceable(4) ptr @_ZNKSt19_Optional_base_implIN4llvm11raw_ostream6ColorsESt14_Optional_baseIS2_Lb1ELb1EEE6_M_getEv(ptr noundef nonnull align 1 dereferenceable(1) %3) #12
  ret ptr %4
}

; Function Attrs: mustprogress nounwind uwtable
define linkonce_odr hidden noundef zeroext i1 @_ZNKSt8optionalIN4llvm11raw_ostream6ColorsEEcvbEv(ptr noundef nonnull align 4 dereferenceable(8) %0) #0 comdat align 2 {
  %2 = alloca ptr, align 8
  store ptr %0, ptr %2, align 8
  %3 = load ptr, ptr %2, align 8
  %4 = call noundef zeroext i1 @_ZNKSt19_Optional_base_implIN4llvm11raw_ostream6ColorsESt14_Optional_baseIS2_Lb1ELb1EEE13_M_is_engagedEv(ptr noundef nonnull align 1 dereferenceable(1) %3) #12
  ret i1 %4
}

; Function Attrs: mustprogress nounwind uwtable
define linkonce_odr noundef zeroext i1 @_ZSteqIN4llvm11raw_ostream6ColorsES2_ENSt9enable_ifIXsr14is_convertibleIDTeqclsr3stdE7declvalIRKT_EEclsr3stdE7declvalIRKT0_EEEbEE5valueEbE4typeERKSt8optionalIS4_ES9_(ptr noundef nonnull align 4 dereferenceable(8) %0, ptr noundef nonnull align 4 dereferenceable(4) %1) #0 comdat {
  %3 = alloca ptr, align 8
  %4 = alloca ptr, align 8
  store ptr %0, ptr %3, align 8
  store ptr %1, ptr %4, align 8
  %5 = load ptr, ptr %3, align 8
  %6 = call noundef zeroext i1 @_ZNKSt8optionalIN4llvm11raw_ostream6ColorsEEcvbEv(ptr noundef nonnull align 4 dereferenceable(8) %5) #12
  br i1 %6, label %7, label %14

7:                                                ; preds = %2
  %8 = load ptr, ptr %3, align 8
  %9 = call noundef nonnull align 4 dereferenceable(4) ptr @_ZNKRSt8optionalIN4llvm11raw_ostream6ColorsEEdeEv(ptr noundef nonnull align 4 dereferenceable(8) %8) #12
  %10 = load i32, ptr %9, align 4
  %11 = load ptr, ptr %4, align 8
  %12 = load i32, ptr %11, align 4
  %13 = icmp eq i32 %10, %12
  br label %14

14:                                               ; preds = %7, %2
  %15 = phi i1 [ false, %2 ], [ %13, %7 ]
  ret i1 %15
}

; Function Attrs: mustprogress nounwind uwtable
define dso_local void @_ZN4llvm9symbolize12MarkupFilter9highlightEv(ptr noundef nonnull align 8 dereferenceable(464) %0) #0 align 2 {
  %2 = alloca ptr, align 8
  %3 = alloca i32, align 4
  store ptr %0, ptr %2, align 8
  %4 = load ptr, ptr %2, align 8
  %5 = getelementptr inbounds nuw %"class.llvm::symbolize::MarkupFilter", ptr %4, i32 0, i32 2
  %6 = load i8, ptr %5, align 8
  %7 = trunc i8 %6 to i1
  br i1 %7, label %9, label %8

8:                                                ; preds = %1
  br label %22

9:                                                ; preds = %1
  %10 = getelementptr inbounds nuw %"class.llvm::symbolize::MarkupFilter", ptr %4, i32 0, i32 0
  %11 = load ptr, ptr %10, align 8
  %12 = getelementptr inbounds nuw %"class.llvm::symbolize::MarkupFilter", ptr %4, i32 0, i32 6
  store i32 4, ptr %3, align 4
  %13 = call noundef zeroext i1 @_ZSteqIN4llvm11raw_ostream6ColorsES2_ENSt9enable_ifIXsr14is_convertibleIDTeqclsr3stdE7declvalIRKT_EEclsr3stdE7declvalIRKT0_EEEbEE5valueEbE4typeERKSt8optionalIS4_ES9_(ptr noundef nonnull align 4 dereferenceable(8) %12, ptr noundef nonnull align 4 dereferenceable(4) %3)
  %14 = select i1 %13, i32 6, i32 4
  %15 = getelementptr inbounds nuw %"class.llvm::symbolize::MarkupFilter", ptr %4, i32 0, i32 7
  %16 = load i8, ptr %15, align 8
  %17 = trunc i8 %16 to i1
  %18 = load ptr, ptr %11, align 8
  %19 = getelementptr inbounds ptr, ptr %18, i64 3
  %20 = load ptr, ptr %19, align 8
  %21 = call noundef nonnull align 8 dereferenceable(48) ptr %20(ptr noundef nonnull align 8 dereferenceable(48) %11, i32 noundef %14, i1 noundef zeroext %17, i1 noundef zeroext false)
  br label %22

22:                                               ; preds = %9, %8
  ret void
}

; Function Attrs: mustprogress nounwind uwtable
define linkonce_odr hidden noundef nonnull align 8 dereferenceable(48) ptr @_ZN4llvmlsERNS_11raw_ostreamERKNS_5TwineE(ptr noundef nonnull align 8 dereferenceable(48) %0, ptr noundef nonnull align 8 dereferenceable(34) %1) #0 comdat {
  %3 = alloca ptr, align 8
  %4 = alloca ptr, align 8
  store ptr %0, ptr %3, align 8
  store ptr %1, ptr %4, align 8
  %5 = load ptr, ptr %4, align 8
  %6 = load ptr, ptr %3, align 8
  call void @_ZNK4llvm5Twine5printERNS_11raw_ostreamE(ptr noundef nonnull align 8 dereferenceable(34) %5, ptr noundef nonnull align 8 dereferenceable(48) %6)
  %7 = load ptr, ptr %3, align 8
  ret ptr %7
}

; Function Attrs: mustprogress nounwind uwtable
define dso_local void @_ZN4llvm9symbolize12MarkupFilter14highlightValueEv(ptr noundef nonnull align 8 dereferenceable(464) %0) #0 align 2 {
  %2 = alloca ptr, align 8
  store ptr %0, ptr %2, align 8
  %3 = load ptr, ptr %2, align 8
  %4 = getelementptr inbounds nuw %"class.llvm::symbolize::MarkupFilter", ptr %3, i32 0, i32 2
  %5 = load i8, ptr %4, align 8
  %6 = trunc i8 %5 to i1
  br i1 %6, label %8, label %7

7:                                                ; preds = %1
  br label %18

8:                                                ; preds = %1
  %9 = getelementptr inbounds nuw %"class.llvm::symbolize::MarkupFilter", ptr %3, i32 0, i32 0
  %10 = load ptr, ptr %9, align 8
  %11 = getelementptr inbounds nuw %"class.llvm::symbolize::MarkupFilter", ptr %3, i32 0, i32 7
  %12 = load i8, ptr %11, align 8
  %13 = trunc i8 %12 to i1
  %14 = load ptr, ptr %10, align 8
  %15 = getelementptr inbounds ptr, ptr %14, i64 3
  %16 = load ptr, ptr %15, align 8
  %17 = call noundef nonnull align 8 dereferenceable(48) ptr %16(ptr noundef nonnull align 8 dereferenceable(48) %10, i32 noundef 2, i1 noundef zeroext %13, i1 noundef zeroext false)
  br label %18

18:                                               ; preds = %8, %7
  ret void
}

; Function Attrs: mustprogress nounwind uwtable
define dso_local void @_ZN4llvm9symbolize12MarkupFilter10printValueENS_5TwineE(ptr noundef nonnull align 8 dereferenceable(464) %0, ptr noundef byval(%"class.llvm::Twine") align 8 %1) #0 align 2 {
  %3 = alloca ptr, align 8
  store ptr %0, ptr %3, align 8
  %4 = load ptr, ptr %3, align 8
  call void @_ZN4llvm9symbolize12MarkupFilter14highlightValueEv(ptr noundef nonnull align 8 dereferenceable(464) %4)
  %5 = getelementptr inbounds nuw %"class.llvm::symbolize::MarkupFilter", ptr %4, i32 0, i32 0
  %6 = load ptr, ptr %5, align 8
  %7 = call noundef nonnull align 8 dereferenceable(48) ptr @_ZN4llvmlsERNS_11raw_ostreamERKNS_5TwineE(ptr noundef nonnull align 8 dereferenceable(48) %6, ptr noundef nonnull align 8 dereferenceable(34) %1)
  call void @_ZN4llvm9symbolize12MarkupFilter9highlightEv(ptr noundef nonnull align 8 dereferenceable(464) %4)
  ret void
}