; Function Attrs: mustprogress nounwind uwtable
define dso_local void @_ZN4llvm9symbolize12MarkupFilter10printValueENS_5TwineE(ptr noundef nonnull readonly align 8 captures(none) dereferenceable(464) %0, ptr noundef byval(%"class.llvm::Twine") align 8 %1) local_unnamed_addr #0 align 2 {
  %3 = getelementptr inbounds nuw i8, ptr %0, i64 16
  %4 = load i8, ptr %3, align 8
  %5 = trunc i8 %4 to i1
  br i1 %5, label %6, label %_ZN4llvm9symbolize12MarkupFilter14highlightValueEv.exit

6:                                                ; preds = %2
  %7 = load ptr, ptr %0, align 8
  %8 = getelementptr inbounds nuw i8, ptr %0, i64 384
  %9 = load i8, ptr %8, align 8
  %10 = trunc i8 %9 to i1
  %11 = load ptr, ptr %7, align 8
  %12 = getelementptr inbounds nuw i8, ptr %11, i64 24
  %13 = load ptr, ptr %12, align 8
  %14 = tail call noundef nonnull align 8 dereferenceable(48) ptr %13(ptr noundef nonnull align 8 dereferenceable(48) %7, i32 noundef 2, i1 noundef zeroext %10, i1 noundef zeroext false) #21
  br label %_ZN4llvm9symbolize12MarkupFilter14highlightValueEv.exit

_ZN4llvm9symbolize12MarkupFilter14highlightValueEv.exit: ; preds = %2, %6
  %15 = load ptr, ptr %0, align 8
  call void @_ZNK4llvm5Twine5printERNS_11raw_ostreamE(ptr noundef nonnull align 8 dereferenceable(34) %1, ptr noundef nonnull align 8 dereferenceable(48) %15) #21
  %16 = load i8, ptr %3, align 8
  %17 = trunc i8 %16 to i1
  br i1 %17, label %18, label %_ZN4llvm9symbolize12MarkupFilter9highlightEv.exit

18:                                               ; preds = %_ZN4llvm9symbolize12MarkupFilter14highlightValueEv.exit
  %19 = load ptr, ptr %0, align 8
  %20 = getelementptr inbounds nuw i8, ptr %0, i64 376
  %21 = getelementptr inbounds nuw i8, ptr %0, i64 380
  %22 = load i8, ptr %21, align 4
  %23 = trunc i8 %22 to i1
  %24 = load i32, ptr %20, align 8
  %25 = icmp eq i32 %24, 4
  %26 = select i1 %23, i1 %25, i1 false
  %27 = select i1 %26, i32 6, i32 4
  %28 = getelementptr inbounds nuw i8, ptr %0, i64 384
  %29 = load i8, ptr %28, align 8
  %30 = trunc i8 %29 to i1
  %31 = load ptr, ptr %19, align 8
  %32 = getelementptr inbounds nuw i8, ptr %31, i64 24
  %33 = load ptr, ptr %32, align 8
  %34 = call noundef nonnull align 8 dereferenceable(48) ptr %33(ptr noundef nonnull align 8 dereferenceable(48) %19, i32 noundef %27, i1 noundef zeroext %30, i1 noundef zeroext false) #21
  br label %_ZN4llvm9symbolize12MarkupFilter9highlightEv.exit

_ZN4llvm9symbolize12MarkupFilter9highlightEv.exit: ; preds = %_ZN4llvm9symbolize12MarkupFilter14highlightValueEv.exit, %18
  ret void
}